; ModuleID = 'source-C-CXX/29/1878.c'
source_filename = "source-C-CXX/29/1878.c"
target datalayout = "e-m:e-p270:32:32-p271:32:32-p272:64:64-i64:64-f80:128-n8:16:32:64-S128"
target triple = "x86_64-pc-linux-gnu"

@.str = private unnamed_addr constant [3 x i8] c"%d\00", align 1

; Function Attrs: nofree nounwind sspstrong uwtable
define dso_local i32 @main() local_unnamed_addr #0 {
  %1 = alloca i32, align 4
  %2 = bitcast i32* %1 to i8*
  call void @llvm.lifetime.start.p0i8(i64 4, i8* nonnull %2) #3
  %3 = call i32 (i8*, ...) @__isoc99_scanf(i8* getelementptr inbounds ([3 x i8], [3 x i8]* @.str, i64 0, i64 0), i32* nonnull %1)
  %4 = load i32, i32* %1, align 4, !tbaa !5
  %5 = icmp slt i32 %4, 1
  br i1 %5, label %22, label %6

6:                                                ; preds = %0, %18
  %7 = phi i32 [ %19, %18 ], [ 0, %0 ]
  %8 = phi i32 [ %20, %18 ], [ 1, %0 ]
  %9 = urem i32 %8, 7
  %10 = icmp eq i32 %9, 0
  %11 = urem i32 %8, 10
  %12 = icmp eq i32 %11, 7
  %13 = or i1 %10, %12
  br i1 %13, label %17, label %14

14:                                               ; preds = %6
  %15 = mul nsw i32 %8, %8
  %16 = add nsw i32 %7, %15
  switch i32 %8, label %18 [
    i32 71, label %17
    i32 72, label %17
    i32 73, label %17
    i32 74, label %17
    i32 75, label %17
    i32 76, label %17
    i32 78, label %17
    i32 79, label %17
  ]

17:                                               ; preds = %14, %14, %14, %14, %14, %14, %14, %14, %6
  br label %18

18:                                               ; preds = %14, %17
  %19 = phi i32 [ %7, %17 ], [ %16, %14 ]
  %20 = add nuw i32 %8, 1
  %21 = icmp eq i32 %8, %4
  br i1 %21, label %22, label %6, !llvm.loop !9

22:                                               ; preds = %18, %0
  %23 = phi i32 [ 0, %0 ], [ %19, %18 ]
  %24 = call i32 (i8*, ...) @printf(i8* nonnull dereferenceable(1) getelementptr inbounds ([3 x i8], [3 x i8]* @.str, i64 0, i64 0), i32 %23)
  call void @llvm.lifetime.end.p0i8(i64 4, i8* nonnull %2) #3
  ret i32 0
}

; Function Attrs: argmemonly mustprogress nofree nosync nounwind willreturn
declare void @llvm.lifetime.start.p0i8(i64 immarg, i8* nocapture) #1

; Function Attrs: nofree nounwind
declare noundef i32 @__isoc99_scanf(i8* nocapture noundef readonly, ...) local_unnamed_addr #2

; Function Attrs: nofree nounwind
declare noundef i32 @printf(i8* nocapture noundef readonly, ...) local_unnamed_addr #2

; Function Attrs: argmemonly mustprogress nofree nosync nounwind willreturn
declare void @llvm.lifetime.end.p0i8(i64 immarg, i8* nocapture) #1


!llvm.module.flags = !{!0, !1, !2, !3}
!llvm.ident = !{!4}

!0 = !{i32 1, !"wchar_size", i32 4}
!1 = !{i32 7, !"PIC Level", i32 2}
!2 = !{i32 7, !"PIE Level", i32 2}
!3 = !{i32 7, !"uwtable", i32 1}
!4 = !{!"clang version 13.0.0"}
!5 = !{!6, !6, i64 0}
!6 = !{!"int", !7, i64 0}
!7 = !{!"omnipotent char", !8, i64 0}
!8 = !{!"Simple C/C++ TBAA"}
!9 = distinct !{!9, !10}
!10 = !{!"llvm.loop.mustprogress"}
